target datalayout = "e-m:e-p270:32:32-p271:32:32-p272:64:64-i64:64-i128:128-f80:128-n8:16:32:64-S128"
target triple = "x86_64-pc-linux-gnu"

%struct.enip_request_key = type { i32, i32, i32, i64, i32, %union.anon }
%union.anon = type { %struct.anon.0 }
%struct.anon.0 = type { i32, i16 }

; Function Attrs: nounwind null_pointer_is_valid sspstrong uwtable
define internal i32 @enip_request_equal(ptr noundef %0, ptr noundef %1) #5 {
  %3 = alloca i32, align 4
  %4 = alloca ptr, align 8
  %5 = alloca ptr, align 8
  %6 = alloca ptr, align 8
  %7 = alloca ptr, align 8
  %8 = alloca i32, align 4
  store ptr %0, ptr %4, align 8
  store ptr %1, ptr %5, align 8
  call void @llvm.lifetime.start.p0(i64 8, ptr %6) #14
  %9 = load ptr, ptr %4, align 8
  store ptr %9, ptr %6, align 8
  call void @llvm.lifetime.start.p0(i64 8, ptr %7) #14
  %10 = load ptr, ptr %5, align 8
  store ptr %10, ptr %7, align 8
  %11 = load ptr, ptr %6, align 8
  %12 = getelementptr inbounds nuw %struct.enip_request_key, ptr %11, i32 0, i32 4
  %13 = load i32, ptr %12, align 8
  %14 = load ptr, ptr %7, align 8
  %15 = getelementptr inbounds nuw %struct.enip_request_key, ptr %14, i32 0, i32 4
  %16 = load i32, ptr %15, align 8
  %17 = icmp eq i32 %13, %16
  br i1 %17, label %18, label %75

18:                                               ; preds = %2
  %19 = load ptr, ptr %6, align 8
  %20 = getelementptr inbounds nuw %struct.enip_request_key, ptr %19, i32 0, i32 0
  %21 = load i32, ptr %20, align 8
  %22 = load ptr, ptr %7, align 8
  %23 = getelementptr inbounds nuw %struct.enip_request_key, ptr %22, i32 0, i32 0
  %24 = load i32, ptr %23, align 8
  %25 = icmp eq i32 %21, %24
  br i1 %25, label %26, label %75

26:                                               ; preds = %18
  %27 = load ptr, ptr %6, align 8
  %28 = getelementptr inbounds nuw %struct.enip_request_key, ptr %27, i32 0, i32 2
  %29 = load i32, ptr %28, align 8
  %30 = load ptr, ptr %7, align 8
  %31 = getelementptr inbounds nuw %struct.enip_request_key, ptr %30, i32 0, i32 2
  %32 = load i32, ptr %31, align 8
  %33 = icmp eq i32 %29, %32
  br i1 %33, label %34, label %75

34:                                               ; preds = %26
  %35 = load ptr, ptr %6, align 8
  %36 = getelementptr inbounds nuw %struct.enip_request_key, ptr %35, i32 0, i32 3
  %37 = load i64, ptr %36, align 8
  %38 = load ptr, ptr %7, align 8
  %39 = getelementptr inbounds nuw %struct.enip_request_key, ptr %38, i32 0, i32 3
  %40 = load i64, ptr %39, align 8
  %41 = icmp eq i64 %37, %40
  br i1 %41, label %42, label %47

42:                                               ; preds = %34
  %43 = load ptr, ptr %6, align 8
  %44 = getelementptr inbounds nuw %struct.enip_request_key, ptr %43, i32 0, i32 2
  %45 = load i32, ptr %44, align 8
  %46 = icmp eq i32 %45, 2
  br i1 %46, label %74, label %47

47:                                               ; preds = %42, %34
  %48 = load ptr, ptr %6, align 8
  %49 = getelementptr inbounds nuw %struct.enip_request_key, ptr %48, i32 0, i32 5
  %50 = getelementptr inbounds nuw %struct.anon.0, ptr %49, i32 0, i32 0
  %51 = load i32, ptr %50, align 4
  %52 = load ptr, ptr %7, align 8
  %53 = getelementptr inbounds nuw %struct.enip_request_key, ptr %52, i32 0, i32 5
  %54 = getelementptr inbounds nuw %struct.anon.0, ptr %53, i32 0, i32 0
  %55 = load i32, ptr %54, align 4
  %56 = icmp eq i32 %51, %55
  br i1 %56, label %57, label %75

57:                                               ; preds = %47
  %58 = load ptr, ptr %6, align 8
  %59 = getelementptr inbounds nuw %struct.enip_request_key, ptr %58, i32 0, i32 5
  %60 = getelementptr inbounds nuw %struct.anon.0, ptr %59, i32 0, i32 1
  %61 = load i16, ptr %60, align 4
  %62 = zext i16 %61 to i32
  %63 = load ptr, ptr %7, align 8
  %64 = getelementptr inbounds nuw %struct.enip_request_key, ptr %63, i32 0, i32 5
  %65 = getelementptr inbounds nuw %struct.anon.0, ptr %64, i32 0, i32 1
  %66 = load i16, ptr %65, align 4
  %67 = zext i16 %66 to i32
  %68 = icmp eq i32 %62, %67
  br i1 %68, label %69, label %75

69:                                               ; preds = %57
  %70 = load ptr, ptr %6, align 8
  %71 = getelementptr inbounds nuw %struct.enip_request_key, ptr %70, i32 0, i32 2
  %72 = load i32, ptr %71, align 8
  %73 = icmp eq i32 %72, 1
  br i1 %73, label %74, label %75

74:                                               ; preds = %69, %42
  store i32 1, ptr %3, align 4
  store i32 1, ptr %8, align 4
  br label %76

75:                                               ; preds = %69, %57, %47, %26, %18, %2
  store i32 0, ptr %3, align 4
  store i32 1, ptr %8, align 4
  br label %76

76:                                               ; preds = %75, %74
  call void @llvm.lifetime.end.p0(i64 8, ptr %7) #14
  call void @llvm.lifetime.end.p0(i64 8, ptr %6) #14
  %77 = load i32, ptr %3, align 4
  ret i32 %77
}