; Function Attrs: mustprogress nofree norecurse nosync nounwind null_pointer_is_valid sspstrong willreturn memory(argmem: read) uwtable
define internal range(i32 0, 2) i32 @enip_request_equal(ptr noundef readonly captures(none) %0, ptr noundef readonly captures(none) %1) #5 {
  %3 = getelementptr inbounds nuw i8, ptr %0, i64 24
  %4 = load i32, ptr %3, align 8
  %5 = getelementptr inbounds nuw i8, ptr %1, i64 24
  %6 = load i32, ptr %5, align 8
  %7 = icmp eq i32 %4, %6
  br i1 %7, label %8, label %38

8:                                                ; preds = %2
  %9 = load i32, ptr %0, align 8
  %10 = load i32, ptr %1, align 8
  %11 = icmp eq i32 %9, %10
  br i1 %11, label %12, label %38

12:                                               ; preds = %8
  %13 = getelementptr inbounds nuw i8, ptr %0, i64 8
  %14 = load i32, ptr %13, align 8
  %15 = getelementptr inbounds nuw i8, ptr %1, i64 8
  %16 = load i32, ptr %15, align 8
  %17 = icmp eq i32 %14, %16
  br i1 %17, label %18, label %38

18:                                               ; preds = %12
  %19 = getelementptr inbounds nuw i8, ptr %0, i64 16
  %20 = load i64, ptr %19, align 8
  %21 = getelementptr inbounds nuw i8, ptr %1, i64 16
  %22 = load i64, ptr %21, align 8
  %23 = icmp eq i64 %20, %22
  %24 = icmp eq i32 %14, 2
  %or.cond = and i1 %24, %23
  br i1 %or.cond, label %39, label %25

25:                                               ; preds = %18
  %26 = getelementptr inbounds nuw i8, ptr %0, i64 28
  %27 = load i32, ptr %26, align 4
  %28 = getelementptr inbounds nuw i8, ptr %1, i64 28
  %29 = load i32, ptr %28, align 4
  %30 = icmp eq i32 %27, %29
  br i1 %30, label %31, label %38

31:                                               ; preds = %25
  %32 = getelementptr inbounds nuw i8, ptr %0, i64 32
  %33 = load i16, ptr %32, align 4
  %34 = getelementptr inbounds nuw i8, ptr %1, i64 32
  %35 = load i16, ptr %34, align 4
  %36 = icmp eq i16 %33, %35
  %37 = icmp eq i32 %14, 1
  %or.cond17 = and i1 %37, %36
  br i1 %or.cond17, label %39, label %38

38:                                               ; preds = %31, %25, %12, %8, %2
  br label %39

39:                                               ; preds = %31, %18, %38
  %.0 = phi i32 [ 0, %38 ], [ 1, %18 ], [ 1, %31 ]
  ret i32 %.0
}